target datalayout = "e-m:e-p270:32:32-p271:32:32-p272:64:64-i64:64-i128:128-f80:128-n8:16:32:64-S128"
target triple = "x86_64-pc-linux-gnu"

%"class.std::__cxx11::basic_string" = type { %"struct.std::__cxx11::basic_string<char>::_Alloc_hider", i64, %union.anon }
%"struct.std::__cxx11::basic_string<char>::_Alloc_hider" = type { ptr }
%union.anon = type { i64, [8 x i8] }
%"class.std::__cxx11::basic_stringstream" = type { %"class.std::basic_iostream.base", %"class.std::__cxx11::basic_stringbuf", %"class.std::basic_ios" }
%"class.std::basic_iostream.base" = type { %"class.std::basic_istream.base", %"class.std::basic_ostream.base" }
%"class.std::basic_istream.base" = type { ptr, i64 }
%"class.std::basic_ostream.base" = type { ptr }
%"class.std::__cxx11::basic_stringbuf" = type { %"class.std::basic_streambuf", i32, %"class.std::__cxx11::basic_string" }
%"class.std::basic_streambuf" = type { ptr, ptr, ptr, ptr, ptr, ptr, ptr, %"class.std::locale" }
%"class.std::locale" = type { ptr }
%"class.std::basic_ios" = type { %"class.std::ios_base", ptr, i8, i8, ptr, ptr, ptr, ptr }
%"class.std::ios_base" = type { ptr, i64, i64, i32, i32, i32, ptr, %"struct.std::ios_base::_Words", [8 x %"struct.std::ios_base::_Words"], i32, ptr, %"class.std::locale" }
%"struct.std::ios_base::_Words" = type { ptr, i64 }
%"struct.cv::utils::logging::LogTag" = type <{ ptr, i32, [4 x i8] }>

@.str.1 = private unnamed_addr constant [141 x i8] c"generated/home/dtcxzyw/WorkSpace/Projects/compilers/llvm-opt-benchmark/bench/opencv/opencv/modules/imgcodecs/src/grfmt_jpeg2000_openjpeg.cpp\00", align 1
@.str.40 = private unnamed_addr constant [44 x i8] c"OpenJPEG2000: can not set error log handler\00", align 1
@__func__._ZN2cv12_GLOBAL__N_117setupLogCallbacksEPPv = private unnamed_addr constant [18 x i8] c"setupLogCallbacks\00", align 1
@.str.41 = private unnamed_addr constant [46 x i8] c"OpenJPEG2000: can not set warning log handler\00", align 1

; Function Attrs: mustprogress uwtable
define internal void @_ZN2cv12_GLOBAL__N_117setupLogCallbacksEPPv(ptr noundef %0) #4 personality ptr @__gxx_personality_v0 {
  %2 = alloca ptr, align 8
  %3 = alloca i32, align 4
  %4 = alloca ptr, align 8
  %5 = alloca %"class.std::__cxx11::basic_stringstream", align 8
  %6 = alloca ptr, align 8
  %7 = alloca i32, align 4
  %8 = alloca %"class.std::__cxx11::basic_string", align 8
  %9 = alloca i32, align 4
  %10 = alloca ptr, align 8
  %11 = alloca %"class.std::__cxx11::basic_stringstream", align 8
  %12 = alloca %"class.std::__cxx11::basic_string", align 8
  store ptr %0, ptr %2, align 8
  %13 = load ptr, ptr %2, align 8
  %14 = call i32 @opj_set_error_handler(ptr noundef %13, ptr noundef @_ZN2cv12_GLOBAL__N_116errorLogCallbackEPKcPv, ptr noundef null)
  %15 = icmp ne i32 %14, 0
  br i1 %15, label %61, label %16

16:                                               ; preds = %1
  br label %17

17:                                               ; preds = %16
  store i32 3, ptr %3, align 4
  store ptr null, ptr %4, align 8
  %18 = load ptr, ptr %4, align 8
  %19 = icmp ne ptr %18, null
  br i1 %19, label %21, label %20

20:                                               ; preds = %17
  store ptr null, ptr %4, align 8
  br label %21

21:                                               ; preds = %20, %17
  %22 = load ptr, ptr %4, align 8
  %23 = icmp ne ptr %22, null
  br i1 %23, label %26, label %24

24:                                               ; preds = %21
  %25 = call noundef ptr @_ZN2cv5utils7logging8internal15getGlobalLogTagEv()
  store ptr %25, ptr %4, align 8
  br label %26

26:                                               ; preds = %24, %21
  %27 = load ptr, ptr %4, align 8
  %28 = icmp ne ptr %27, null
  br i1 %28, label %29, label %35

29:                                               ; preds = %26
  %30 = load ptr, ptr %4, align 8
  %31 = getelementptr inbounds %"struct.cv::utils::logging::LogTag", ptr %30, i32 0, i32 1
  %32 = load i32, ptr %31, align 8
  %33 = icmp sgt i32 3, %32
  br i1 %33, label %34, label %35

34:                                               ; preds = %29
  br label %60

35:                                               ; preds = %29, %26
  call void @_ZNSt7__cxx1118basic_stringstreamIcSt11char_traitsIcESaIcEEC1Ev(ptr noundef nonnull align 8 dereferenceable(128) %5)
  %36 = getelementptr inbounds i8, ptr %5, i64 16
  %37 = invoke noundef nonnull align 8 dereferenceable(8) ptr @_ZStlsISt11char_traitsIcEERSt13basic_ostreamIcT_ES5_PKc(ptr noundef nonnull align 8 dereferenceable(8) %36, ptr noundef @.str.40)
          to label %38 unwind label %51

38:                                               ; preds = %35
  %39 = load ptr, ptr %4, align 8
  %40 = icmp ne ptr %39, null
  br i1 %40, label %41, label %45

41:                                               ; preds = %38
  %42 = load ptr, ptr %4, align 8
  %43 = getelementptr inbounds %"struct.cv::utils::logging::LogTag", ptr %42, i32 0, i32 0
  %44 = load ptr, ptr %43, align 8
  br label %46

45:                                               ; preds = %38
  br label %46

46:                                               ; preds = %45, %41
  %47 = phi ptr [ %44, %41 ], [ null, %45 ]
  invoke void @_ZNKSt7__cxx1118basic_stringstreamIcSt11char_traitsIcESaIcEE3strEv(ptr dead_on_unwind writable sret(%"class.std::__cxx11::basic_string") align 8 %8, ptr noundef nonnull align 8 dereferenceable(128) %5)
          to label %48 unwind label %51

48:                                               ; preds = %46
  %49 = call noundef ptr @_ZNKSt7__cxx1112basic_stringIcSt11char_traitsIcESaIcEE5c_strEv(ptr noundef nonnull align 8 dereferenceable(32) %8) #3
  invoke void @_ZN2cv5utils7logging8internal17writeLogMessageExENS1_8LogLevelEPKcS5_iS5_S5_(i32 noundef 3, ptr noundef %47, ptr noundef @.str.1, i32 noundef 311, ptr noundef @__func__._ZN2cv12_GLOBAL__N_117setupLogCallbacksEPPv, ptr noundef %49)
          to label %50 unwind label %55

50:                                               ; preds = %48
  call void @_ZNSt7__cxx1112basic_stringIcSt11char_traitsIcESaIcEED1Ev(ptr noundef nonnull align 8 dereferenceable(32) %8) #3
  call void @_ZNSt7__cxx1118basic_stringstreamIcSt11char_traitsIcESaIcEED1Ev(ptr noundef nonnull align 8 dereferenceable(128) %5) #3
  br label %60

51:                                               ; preds = %46, %35
  %52 = landingpad { ptr, i32 }
          cleanup
  %53 = extractvalue { ptr, i32 } %52, 0
  store ptr %53, ptr %6, align 8
  %54 = extractvalue { ptr, i32 } %52, 1
  store i32 %54, ptr %7, align 4
  br label %59

55:                                               ; preds = %48
  %56 = landingpad { ptr, i32 }
          cleanup
  %57 = extractvalue { ptr, i32 } %56, 0
  store ptr %57, ptr %6, align 8
  %58 = extractvalue { ptr, i32 } %56, 1
  store i32 %58, ptr %7, align 4
  call void @_ZNSt7__cxx1112basic_stringIcSt11char_traitsIcESaIcEED1Ev(ptr noundef nonnull align 8 dereferenceable(32) %8) #3
  br label %59

59:                                               ; preds = %55, %51
  call void @_ZNSt7__cxx1118basic_stringstreamIcSt11char_traitsIcESaIcEED1Ev(ptr noundef nonnull align 8 dereferenceable(128) %5) #3
  br label %111

60:                                               ; preds = %50, %34
  br label %61

61:                                               ; preds = %60, %1
  %62 = load ptr, ptr %2, align 8
  %63 = call i32 @opj_set_warning_handler(ptr noundef %62, ptr noundef @_ZN2cv12_GLOBAL__N_118warningLogCallbackEPKcPv, ptr noundef null)
  %64 = icmp ne i32 %63, 0
  br i1 %64, label %110, label %65

65:                                               ; preds = %61
  br label %66

66:                                               ; preds = %65
  store i32 3, ptr %9, align 4
  store ptr null, ptr %10, align 8
  %67 = load ptr, ptr %10, align 8
  %68 = icmp ne ptr %67, null
  br i1 %68, label %70, label %69

69:                                               ; preds = %66
  store ptr null, ptr %10, align 8
  br label %70

70:                                               ; preds = %69, %66
  %71 = load ptr, ptr %10, align 8
  %72 = icmp ne ptr %71, null
  br i1 %72, label %75, label %73

73:                                               ; preds = %70
  %74 = call noundef ptr @_ZN2cv5utils7logging8internal15getGlobalLogTagEv()
  store ptr %74, ptr %10, align 8
  br label %75

75:                                               ; preds = %73, %70
  %76 = load ptr, ptr %10, align 8
  %77 = icmp ne ptr %76, null
  br i1 %77, label %78, label %84

78:                                               ; preds = %75
  %79 = load ptr, ptr %10, align 8
  %80 = getelementptr inbounds %"struct.cv::utils::logging::LogTag", ptr %79, i32 0, i32 1
  %81 = load i32, ptr %80, align 8
  %82 = icmp sgt i32 3, %81
  br i1 %82, label %83, label %84

83:                                               ; preds = %78
  br label %109

84:                                               ; preds = %78, %75
  call void @_ZNSt7__cxx1118basic_stringstreamIcSt11char_traitsIcESaIcEEC1Ev(ptr noundef nonnull align 8 dereferenceable(128) %11)
  %85 = getelementptr inbounds i8, ptr %11, i64 16
  %86 = invoke noundef nonnull align 8 dereferenceable(8) ptr @_ZStlsISt11char_traitsIcEERSt13basic_ostreamIcT_ES5_PKc(ptr noundef nonnull align 8 dereferenceable(8) %85, ptr noundef @.str.41)
          to label %87 unwind label %100

87:                                               ; preds = %84
  %88 = load ptr, ptr %10, align 8
  %89 = icmp ne ptr %88, null
  br i1 %89, label %90, label %94

90:                                               ; preds = %87
  %91 = load ptr, ptr %10, align 8
  %92 = getelementptr inbounds %"struct.cv::utils::logging::LogTag", ptr %91, i32 0, i32 0
  %93 = load ptr, ptr %92, align 8
  br label %95

94:                                               ; preds = %87
  br label %95

95:                                               ; preds = %94, %90
  %96 = phi ptr [ %93, %90 ], [ null, %94 ]
  invoke void @_ZNKSt7__cxx1118basic_stringstreamIcSt11char_traitsIcESaIcEE3strEv(ptr dead_on_unwind writable sret(%"class.std::__cxx11::basic_string") align 8 %12, ptr noundef nonnull align 8 dereferenceable(128) %11)
          to label %97 unwind label %100

97:                                               ; preds = %95
  %98 = call noundef ptr @_ZNKSt7__cxx1112basic_stringIcSt11char_traitsIcESaIcEE5c_strEv(ptr noundef nonnull align 8 dereferenceable(32) %12) #3
  invoke void @_ZN2cv5utils7logging8internal17writeLogMessageExENS1_8LogLevelEPKcS5_iS5_S5_(i32 noundef 3, ptr noundef %96, ptr noundef @.str.1, i32 noundef 315, ptr noundef @__func__._ZN2cv12_GLOBAL__N_117setupLogCallbacksEPPv, ptr noundef %98)
          to label %99 unwind label %104

99:                                               ; preds = %97
  call void @_ZNSt7__cxx1112basic_stringIcSt11char_traitsIcESaIcEED1Ev(ptr noundef nonnull align 8 dereferenceable(32) %12) #3
  call void @_ZNSt7__cxx1118basic_stringstreamIcSt11char_traitsIcESaIcEED1Ev(ptr noundef nonnull align 8 dereferenceable(128) %11) #3
  br label %109

100:                                              ; preds = %95, %84
  %101 = landingpad { ptr, i32 }
          cleanup
  %102 = extractvalue { ptr, i32 } %101, 0
  store ptr %102, ptr %6, align 8
  %103 = extractvalue { ptr, i32 } %101, 1
  store i32 %103, ptr %7, align 4
  br label %108

104:                                              ; preds = %97
  %105 = landingpad { ptr, i32 }
          cleanup
  %106 = extractvalue { ptr, i32 } %105, 0
  store ptr %106, ptr %6, align 8
  %107 = extractvalue { ptr, i32 } %105, 1
  store i32 %107, ptr %7, align 4
  call void @_ZNSt7__cxx1112basic_stringIcSt11char_traitsIcESaIcEED1Ev(ptr noundef nonnull align 8 dereferenceable(32) %12) #3
  br label %108

108:                                              ; preds = %104, %100
  call void @_ZNSt7__cxx1118basic_stringstreamIcSt11char_traitsIcESaIcEED1Ev(ptr noundef nonnull align 8 dereferenceable(128) %11) #3
  br label %111

109:                                              ; preds = %99, %83
  br label %110

110:                                              ; preds = %109, %61
  ret void

111:                                              ; preds = %108, %59
  %112 = load ptr, ptr %6, align 8
  %113 = load i32, ptr %7, align 4
  %114 = insertvalue { ptr, i32 } poison, ptr %112, 0
  %115 = insertvalue { ptr, i32 } %114, i32 %113, 1
  resume { ptr, i32 } %115
}