; Function Attrs: mustprogress uwtable
define internal fastcc void @_ZN2cv12_GLOBAL__N_117setupLogCallbacksEPPv(ptr noundef %0) unnamed_addr #3 personality ptr @__gxx_personality_v0 {
  %2 = alloca %"class.std::__cxx11::basic_stringstream", align 8
  %3 = alloca %"class.std::__cxx11::basic_string", align 8
  %4 = alloca %"class.std::__cxx11::basic_stringstream", align 8
  %5 = alloca %"class.std::__cxx11::basic_string", align 8
  %6 = tail call i32 @opj_set_error_handler(ptr noundef %0, ptr noundef nonnull @_ZN2cv12_GLOBAL__N_116errorLogCallbackEPKcPv, ptr noundef null)
  %.not = icmp eq i32 %6, 0
  br i1 %.not, label %7, label %28

7:                                                ; preds = %1
  %8 = tail call noundef ptr @_ZN2cv5utils7logging8internal15getGlobalLogTagEv()
  %.not21 = icmp eq ptr %8, null
  br i1 %.not21, label %13, label %9

9:                                                ; preds = %7
  %10 = getelementptr inbounds i8, ptr %8, i64 8
  %11 = load i32, ptr %10, align 8
  %12 = icmp slt i32 %11, 3
  br i1 %12, label %28, label %13

13:                                               ; preds = %9, %7
  call void @_ZNSt7__cxx1118basic_stringstreamIcSt11char_traitsIcESaIcEEC1Ev(ptr noundef nonnull align 8 dereferenceable(128) %2)
  %14 = getelementptr inbounds i8, ptr %2, i64 16
  %15 = invoke noundef nonnull align 8 dereferenceable(8) ptr @_ZStlsISt11char_traitsIcEERSt13basic_ostreamIcT_ES5_PKc(ptr noundef nonnull align 8 dereferenceable(8) %14, ptr noundef nonnull @.str.40)
          to label %16 unwind label %24

16:                                               ; preds = %13
  br i1 %.not21, label %19, label %17

17:                                               ; preds = %16
  %18 = load ptr, ptr %8, align 8
  br label %19

19:                                               ; preds = %16, %17
  %20 = phi ptr [ %18, %17 ], [ null, %16 ]
  invoke void @_ZNKSt7__cxx1118basic_stringstreamIcSt11char_traitsIcESaIcEE3strEv(ptr dead_on_unwind nonnull writable sret(%"class.std::__cxx11::basic_string") align 8 %3, ptr noundef nonnull align 8 dereferenceable(128) %2)
          to label %21 unwind label %24

21:                                               ; preds = %19
  %22 = call noundef ptr @_ZNKSt7__cxx1112basic_stringIcSt11char_traitsIcESaIcEE5c_strEv(ptr noundef nonnull align 8 dereferenceable(32) %3) #19
  invoke void @_ZN2cv5utils7logging8internal17writeLogMessageExENS1_8LogLevelEPKcS5_iS5_S5_(i32 noundef 3, ptr noundef %20, ptr noundef nonnull @.str.1, i32 noundef 311, ptr noundef nonnull @__func__._ZN2cv12_GLOBAL__N_117setupLogCallbacksEPPv, ptr noundef %22)
          to label %23 unwind label %26

23:                                               ; preds = %21
  call void @_ZNSt7__cxx1112basic_stringIcSt11char_traitsIcESaIcEED1Ev(ptr noundef nonnull align 8 dereferenceable(32) %3) #19
  call void @_ZNSt7__cxx1118basic_stringstreamIcSt11char_traitsIcESaIcEED1Ev(ptr noundef nonnull align 8 dereferenceable(128) %2) #19
  br label %28

24:                                               ; preds = %19, %13
  %25 = landingpad { ptr, i32 }
          cleanup
  br label %52

26:                                               ; preds = %21
  %27 = landingpad { ptr, i32 }
          cleanup
  call void @_ZNSt7__cxx1112basic_stringIcSt11char_traitsIcESaIcEED1Ev(ptr noundef nonnull align 8 dereferenceable(32) %3) #19
  br label %52

28:                                               ; preds = %23, %9, %1
  %29 = call i32 @opj_set_warning_handler(ptr noundef %0, ptr noundef nonnull @_ZN2cv12_GLOBAL__N_118warningLogCallbackEPKcPv, ptr noundef null)
  %.not23 = icmp eq i32 %29, 0
  br i1 %.not23, label %30, label %51

30:                                               ; preds = %28
  %31 = call noundef ptr @_ZN2cv5utils7logging8internal15getGlobalLogTagEv()
  %.not24 = icmp eq ptr %31, null
  br i1 %.not24, label %36, label %32

32:                                               ; preds = %30
  %33 = getelementptr inbounds i8, ptr %31, i64 8
  %34 = load i32, ptr %33, align 8
  %35 = icmp slt i32 %34, 3
  br i1 %35, label %51, label %36

36:                                               ; preds = %32, %30
  call void @_ZNSt7__cxx1118basic_stringstreamIcSt11char_traitsIcESaIcEEC1Ev(ptr noundef nonnull align 8 dereferenceable(128) %4)
  %37 = getelementptr inbounds i8, ptr %4, i64 16
  %38 = invoke noundef nonnull align 8 dereferenceable(8) ptr @_ZStlsISt11char_traitsIcEERSt13basic_ostreamIcT_ES5_PKc(ptr noundef nonnull align 8 dereferenceable(8) %37, ptr noundef nonnull @.str.41)
          to label %39 unwind label %47

39:                                               ; preds = %36
  br i1 %.not24, label %42, label %40

40:                                               ; preds = %39
  %41 = load ptr, ptr %31, align 8
  br label %42

42:                                               ; preds = %39, %40
  %43 = phi ptr [ %41, %40 ], [ null, %39 ]
  invoke void @_ZNKSt7__cxx1118basic_stringstreamIcSt11char_traitsIcESaIcEE3strEv(ptr dead_on_unwind nonnull writable sret(%"class.std::__cxx11::basic_string") align 8 %5, ptr noundef nonnull align 8 dereferenceable(128) %4)
          to label %44 unwind label %47

44:                                               ; preds = %42
  %45 = call noundef ptr @_ZNKSt7__cxx1112basic_stringIcSt11char_traitsIcESaIcEE5c_strEv(ptr noundef nonnull align 8 dereferenceable(32) %5) #19
  invoke void @_ZN2cv5utils7logging8internal17writeLogMessageExENS1_8LogLevelEPKcS5_iS5_S5_(i32 noundef 3, ptr noundef %43, ptr noundef nonnull @.str.1, i32 noundef 315, ptr noundef nonnull @__func__._ZN2cv12_GLOBAL__N_117setupLogCallbacksEPPv, ptr noundef %45)
          to label %46 unwind label %49

46:                                               ; preds = %44
  call void @_ZNSt7__cxx1112basic_stringIcSt11char_traitsIcESaIcEED1Ev(ptr noundef nonnull align 8 dereferenceable(32) %5) #19
  call void @_ZNSt7__cxx1118basic_stringstreamIcSt11char_traitsIcESaIcEED1Ev(ptr noundef nonnull align 8 dereferenceable(128) %4) #19
  br label %51

47:                                               ; preds = %42, %36
  %48 = landingpad { ptr, i32 }
          cleanup
  br label %52

49:                                               ; preds = %44
  %50 = landingpad { ptr, i32 }
          cleanup
  call void @_ZNSt7__cxx1112basic_stringIcSt11char_traitsIcESaIcEED1Ev(ptr noundef nonnull align 8 dereferenceable(32) %5) #19
  br label %52

51:                                               ; preds = %46, %32, %28
  ret void

52:                                               ; preds = %47, %49, %24, %26
  %.sink = phi ptr [ %2, %26 ], [ %2, %24 ], [ %4, %49 ], [ %4, %47 ]
  %.pn25.pn = phi { ptr, i32 } [ %27, %26 ], [ %25, %24 ], [ %50, %49 ], [ %48, %47 ]
  call void @_ZNSt7__cxx1118basic_stringstreamIcSt11char_traitsIcESaIcEED1Ev(ptr noundef nonnull align 8 dereferenceable(128) %.sink) #19
  resume { ptr, i32 } %.pn25.pn
}